; Function Attrs: nounwind uwtable
define hidden noalias ptr @mi_malloc_aligned_at(i64 noundef %0, i64 noundef %1, i64 noundef %2) local_unnamed_addr #0 {
  %4 = tail call align 8 ptr @llvm.threadlocal.address.p0(ptr align 8 @_mi_heap_default)
  %5 = load ptr, ptr %4, align 8, !tbaa !18
  %6 = tail call range(i64 0, 65) i64 @llvm.ctpop.i64(i64 range(i64 1, 0) %1)
  %or.cond.not.i.i = icmp eq i64 %6, 1
  br i1 %or.cond.not.i.i, label %7, label %mi_heap_malloc_aligned_at.exit, !prof !3

7:                                                ; preds = %3
  %8 = icmp ult i64 %0, 1025
  %9 = icmp ule i64 %1, %0
  %10 = and i1 %8, %9
  br i1 %10, label %11, label %.thread.i.i, !prof !4

11:                                               ; preds = %7
  %12 = add nuw nsw i64 %0, 7
  %13 = lshr i64 %12, 3
  %14 = getelementptr inbounds nuw i8, ptr %5, i64 232
  %15 = getelementptr inbounds nuw [129 x ptr], ptr %14, i64 0, i64 %13
  %16 = load ptr, ptr %15, align 8, !tbaa !5
  %17 = getelementptr inbounds nuw i8, ptr %16, i64 16
  %18 = load ptr, ptr %17, align 8, !tbaa !10
  %.not.i.i = icmp eq ptr %18, null
  br i1 %.not.i.i, label %.thread.i.i, label %19, !prof !17

19:                                               ; preds = %11
  %20 = add i64 %1, -1
  %21 = ptrtoint ptr %18 to i64
  %22 = add i64 %2, %21
  %23 = and i64 %22, %20
  %.not36.i.i = icmp eq i64 %23, 0
  br i1 %.not36.i.i, label %24, label %.thread.i.i, !prof !4

24:                                               ; preds = %19
  %25 = tail call ptr @_mi_page_malloc(ptr noundef nonnull %5, ptr noundef nonnull %16, i64 noundef %0) #8
  br label %mi_heap_malloc_aligned_at.exit

.thread.i.i:                                      ; preds = %19, %11, %7
  %26 = tail call fastcc ptr @mi_heap_malloc_zero_aligned_at_generic(ptr noundef %5, i64 noundef %0, i64 noundef %1, i64 noundef %2, i1 noundef zeroext false) #9
  br label %mi_heap_malloc_aligned_at.exit

mi_heap_malloc_aligned_at.exit:                   ; preds = %3, %24, %.thread.i.i
  %.030.i.i = phi ptr [ %26, %.thread.i.i ], [ null, %3 ], [ %25, %24 ]
  ret ptr %.030.i.i
}